; Function Attrs: mustprogress nofree norecurse nosync nounwind willreturn memory(none) uwtable
define { i64, i64 } @_ZN10ColorUtils10fromColorTE7color_t(i48 %0) local_unnamed_addr #3 align 2 {
  %.sroa.0.0.extract.trunc = trunc i48 %0 to i16
  %2 = lshr i16 %.sroa.0.0.extract.trunc, 8
  %sum.shift = lshr i48 %0, 24
  %3 = and i48 %sum.shift, 255
  %sum.shift2 = lshr i48 %0, 40
  %4 = mul nuw i16 %2, 257
  %narrow = mul nuw nsw i48 %3, 257
  %.sroa.01.6.insert.ext = zext i16 %4 to i64
  %.sroa.01.6.insert.shift = shl nuw i64 %.sroa.01.6.insert.ext, 48
  %5 = mul nuw nsw i48 %sum.shift2, 16842752
  %.sroa.6.10.insert.insert4 = or disjoint i48 %narrow, %5
  %.sroa.6.10.insert.insert = zext nneg i48 %.sroa.6.10.insert.insert4 to i64
  %.sroa.01.4.insert.insert = or disjoint i64 %.sroa.01.6.insert.shift, 281470681743361
  %.fca.0.insert.i = insertvalue { i64, i64 } poison, i64 %.sroa.01.4.insert.insert, 0
  %.fca.1.insert.i = insertvalue { i64, i64 } %.fca.0.insert.i, i64 %.sroa.6.10.insert.insert, 1
  ret { i64, i64 } %.fca.1.insert.i
}